target datalayout = "e-m:e-p270:32:32-p271:32:32-p272:64:64-i64:64-i128:128-f80:128-n8:16:32:64-S128"
target triple = "x86_64-pc-linux-gnu"

%struct.AVFormatContext = type { ptr, ptr, ptr, ptr, ptr, i32, i32, ptr, i32, ptr, i32, ptr, ptr, i64, i64, i64, i32, i32, i32, i64, i64, ptr, i32, i32, ptr, i32, i32, i32, i32, ptr, i64, i32, i32, %struct.AVIOInterruptCB, i32, i32, i32, i32, i64, i32, i32, i32, i32, i32, i32, i32, i32, i32, i32, i32, i32, i64, i32, i32, i32, i32, i32, ptr, ptr, ptr, ptr, i32, ptr, ptr, ptr, ptr, i32, ptr, ptr, i64, ptr, ptr, ptr, i64 }
%struct.AVIOInterruptCB = type { ptr, ptr }
%struct.ASFContext = type { ptr, [128 x i32], [128 x %struct.ASFStream], [128 x i32], [128 x %struct.AVRational], [128 x [6 x i8]], i32, i64, i64, i64, i32, %struct.ASFMainHeader, i32, i32, i32, i32, i32, i32, i32, i32, i32, i32, i32, i64, i32, i32, i32, i64, i64, i32, ptr, i32, i32, i32 }
%struct.ASFStream = type { i32, i8, %struct.AVPacket, i32, i32, i32, i64, i32, i32, i32, i32, i32, i64, i16, i32, [256 x i32], i32, [8 x %struct.ASFPayload] }
%struct.AVPacket = type { ptr, i64, i64, ptr, i32, i32, i32, ptr, i32, i64, i64, ptr, ptr, %struct.AVRational }
%struct.AVRational = type { i32, i32 }
%struct.ASFPayload = type { i8, i16 }
%struct.ASFMainHeader = type { [16 x i8], i64, i64, i64, i64, i32, i32, i32, i32, i32, i32 }
%struct.FFFormatContext = type { %struct.AVFormatContext, i32, %struct.PacketList, i64, ptr, ptr, i32, ptr, i32 }
%struct.PacketList = type { ptr, ptr }
%struct.AVStream = type { ptr, i32, i32, ptr, ptr, %struct.AVRational, i64, i64, i64, i32, i32, %struct.AVRational, ptr, %struct.AVRational, %struct.AVPacket, i32, %struct.AVRational, i32 }

@.str.70 = private unnamed_addr constant [21 x i8] c"asf_read_pts failed\0A\00", align 1

; Function Attrs: nounwind uwtable
define internal void @asf_reset_header(ptr noundef %0) #0 {
  %2 = alloca ptr, align 8
  %3 = alloca ptr, align 8
  %4 = alloca ptr, align 8
  %5 = alloca i32, align 4
  store ptr %0, ptr %2, align 8, !tbaa !13
  call void @llvm.lifetime.start.p0(i64 8, ptr %3) #11
  %6 = load ptr, ptr %2, align 8, !tbaa !13
  %7 = getelementptr inbounds nuw %struct.AVFormatContext, ptr %6, i32 0, i32 3
  %8 = load ptr, ptr %7, align 8, !tbaa !15
  store ptr %8, ptr %3, align 8, !tbaa !30
  call void @llvm.lifetime.start.p0(i64 8, ptr %4) #11
  call void @llvm.lifetime.start.p0(i64 4, ptr %5) #11
  %9 = load ptr, ptr %3, align 8, !tbaa !30
  %10 = getelementptr inbounds nuw %struct.ASFContext, ptr %9, i32 0, i32 6
  store i32 0, ptr %10, align 8, !tbaa !61
  %11 = load ptr, ptr %3, align 8, !tbaa !30
  %12 = getelementptr inbounds nuw %struct.ASFContext, ptr %11, i32 0, i32 12
  store i32 0, ptr %12, align 8, !tbaa !190
  %13 = load ptr, ptr %3, align 8, !tbaa !30
  %14 = getelementptr inbounds nuw %struct.ASFContext, ptr %13, i32 0, i32 13
  store i32 0, ptr %14, align 4, !tbaa !191
  %15 = load ptr, ptr %3, align 8, !tbaa !30
  %16 = getelementptr inbounds nuw %struct.ASFContext, ptr %15, i32 0, i32 14
  store i32 0, ptr %16, align 8, !tbaa !192
  %17 = load ptr, ptr %3, align 8, !tbaa !30
  %18 = getelementptr inbounds nuw %struct.ASFContext, ptr %17, i32 0, i32 15
  store i32 0, ptr %18, align 4, !tbaa !193
  %19 = load ptr, ptr %3, align 8, !tbaa !30
  %20 = getelementptr inbounds nuw %struct.ASFContext, ptr %19, i32 0, i32 16
  store i32 0, ptr %20, align 8, !tbaa !79
  %21 = load ptr, ptr %3, align 8, !tbaa !30
  %22 = getelementptr inbounds nuw %struct.ASFContext, ptr %21, i32 0, i32 17
  store i32 0, ptr %22, align 4, !tbaa !164
  %23 = load ptr, ptr %3, align 8, !tbaa !30
  %24 = getelementptr inbounds nuw %struct.ASFContext, ptr %23, i32 0, i32 18
  store i32 0, ptr %24, align 8, !tbaa !157
  %25 = load ptr, ptr %3, align 8, !tbaa !30
  %26 = getelementptr inbounds nuw %struct.ASFContext, ptr %25, i32 0, i32 19
  store i32 0, ptr %26, align 4, !tbaa !151
  %27 = load ptr, ptr %3, align 8, !tbaa !30
  %28 = getelementptr inbounds nuw %struct.ASFContext, ptr %27, i32 0, i32 20
  store i32 0, ptr %28, align 8, !tbaa !147
  %29 = load ptr, ptr %3, align 8, !tbaa !30
  %30 = getelementptr inbounds nuw %struct.ASFContext, ptr %29, i32 0, i32 21
  store i32 0, ptr %30, align 4, !tbaa !155
  %31 = load ptr, ptr %3, align 8, !tbaa !30
  %32 = getelementptr inbounds nuw %struct.ASFContext, ptr %31, i32 0, i32 22
  store i32 0, ptr %32, align 8, !tbaa !153
  %33 = load ptr, ptr %3, align 8, !tbaa !30
  %34 = getelementptr inbounds nuw %struct.ASFContext, ptr %33, i32 0, i32 23
  store i64 0, ptr %34, align 8, !tbaa !158
  %35 = load ptr, ptr %3, align 8, !tbaa !30
  %36 = getelementptr inbounds nuw %struct.ASFContext, ptr %35, i32 0, i32 25
  store i32 0, ptr %36, align 4, !tbaa !161
  %37 = load ptr, ptr %3, align 8, !tbaa !30
  %38 = getelementptr inbounds nuw %struct.ASFContext, ptr %37, i32 0, i32 26
  store i32 0, ptr %38, align 8, !tbaa !159
  %39 = load ptr, ptr %3, align 8, !tbaa !30
  %40 = getelementptr inbounds nuw %struct.ASFContext, ptr %39, i32 0, i32 27
  store i64 0, ptr %40, align 8, !tbaa !80
  store i32 0, ptr %5, align 4, !tbaa !34
  br label %41

41:                                               ; preds = %58, %1
  %42 = load i32, ptr %5, align 4, !tbaa !34
  %43 = icmp slt i32 %42, 128
  br i1 %43, label %44, label %61

44:                                               ; preds = %41
  %45 = load ptr, ptr %3, align 8, !tbaa !30
  %46 = getelementptr inbounds nuw %struct.ASFContext, ptr %45, i32 0, i32 2
  %47 = load i32, ptr %5, align 4, !tbaa !34
  %48 = sext i32 %47 to i64
  %49 = getelementptr inbounds [128 x %struct.ASFStream], ptr %46, i64 0, i64 %48
  store ptr %49, ptr %4, align 8, !tbaa !108
  %50 = load ptr, ptr %4, align 8, !tbaa !108
  %51 = getelementptr inbounds nuw %struct.ASFStream, ptr %50, i32 0, i32 2
  call void @av_packet_unref(ptr noundef %51)
  %52 = load ptr, ptr %4, align 8, !tbaa !108
  %53 = getelementptr inbounds nuw %struct.ASFStream, ptr %52, i32 0, i32 4
  store i32 0, ptr %53, align 4, !tbaa !160
  %54 = load ptr, ptr %4, align 8, !tbaa !108
  %55 = getelementptr inbounds nuw %struct.ASFStream, ptr %54, i32 0, i32 3
  store i32 0, ptr %55, align 8, !tbaa !156
  %56 = load ptr, ptr %4, align 8, !tbaa !108
  %57 = getelementptr inbounds nuw %struct.ASFStream, ptr %56, i32 0, i32 1
  store i8 0, ptr %57, align 4, !tbaa !165
  br label %58

58:                                               ; preds = %44
  %59 = load i32, ptr %5, align 4, !tbaa !34
  %60 = add nsw i32 %59, 1
  store i32 %60, ptr %5, align 4, !tbaa !34
  br label %41, !llvm.loop !196

61:                                               ; preds = %41
  %62 = load ptr, ptr %3, align 8, !tbaa !30
  %63 = getelementptr inbounds nuw %struct.ASFContext, ptr %62, i32 0, i32 30
  store ptr null, ptr %63, align 8, !tbaa !154
  call void @llvm.lifetime.end.p0(i64 4, ptr %5) #11
  call void @llvm.lifetime.end.p0(i64 8, ptr %4) #11
  call void @llvm.lifetime.end.p0(i64 8, ptr %3) #11
  ret void
}

; Function Attrs: alwaysinline nounwind uwtable
define internal ptr @ffformatcontext(ptr noundef %0) #2 {
  %2 = alloca ptr, align 8
  store ptr %0, ptr %2, align 8, !tbaa !13
  %3 = load ptr, ptr %2, align 8, !tbaa !13
  ret ptr %3
}

; Function Attrs: nounwind uwtable
define internal i64 @asf_read_pts(ptr noundef %0, i32 noundef %1, ptr noundef %2, i64 noundef %3) #0 {
  %5 = alloca i64, align 8
  %6 = alloca ptr, align 8
  %7 = alloca i32, align 4
  %8 = alloca ptr, align 8
  %9 = alloca i64, align 8
  %10 = alloca ptr, align 8
  %11 = alloca ptr, align 8
  %12 = alloca %struct.AVPacket, align 8
  %13 = alloca ptr, align 8
  %14 = alloca ptr, align 8
  %15 = alloca i64, align 8
  %16 = alloca i64, align 8
  %17 = alloca i32, align 4
  %18 = alloca [127 x i64], align 16
  %19 = alloca i32, align 4
  store ptr %0, ptr %6, align 8, !tbaa !13
  store i32 %1, ptr %7, align 4, !tbaa !34
  store ptr %2, ptr %8, align 8, !tbaa !98
  store i64 %3, ptr %9, align 8, !tbaa !44
  call void @llvm.lifetime.start.p0(i64 8, ptr %10) #11
  %20 = load ptr, ptr %6, align 8, !tbaa !13
  %21 = call ptr @ffformatcontext(ptr noundef %20)
  store ptr %21, ptr %10, align 8, !tbaa !100
  call void @llvm.lifetime.start.p0(i64 8, ptr %11) #11
  %22 = load ptr, ptr %6, align 8, !tbaa !13
  %23 = getelementptr inbounds nuw %struct.AVFormatContext, ptr %22, i32 0, i32 3
  %24 = load ptr, ptr %23, align 8, !tbaa !15
  store ptr %24, ptr %11, align 8, !tbaa !30
  call void @llvm.lifetime.start.p0(i64 104, ptr %12) #11
  call void @llvm.lifetime.start.p0(i64 8, ptr %13) #11
  store ptr %12, ptr %13, align 8, !tbaa !57
  call void @llvm.lifetime.start.p0(i64 8, ptr %14) #11
  call void @llvm.lifetime.start.p0(i64 8, ptr %15) #11
  call void @llvm.lifetime.start.p0(i64 8, ptr %16) #11
  %25 = load ptr, ptr %8, align 8, !tbaa !98
  %26 = load i64, ptr %25, align 8, !tbaa !44
  store i64 %26, ptr %16, align 8, !tbaa !44
  call void @llvm.lifetime.start.p0(i64 4, ptr %17) #11
  call void @llvm.lifetime.start.p0(i64 1016, ptr %18) #11
  store i32 0, ptr %17, align 4, !tbaa !34
  br label %27

27:                                               ; preds = %38, %4
  %28 = load i32, ptr %17, align 4, !tbaa !34
  %29 = load ptr, ptr %6, align 8, !tbaa !13
  %30 = getelementptr inbounds nuw %struct.AVFormatContext, ptr %29, i32 0, i32 6
  %31 = load i32, ptr %30, align 4, !tbaa !102
  %32 = icmp ult i32 %28, %31
  br i1 %32, label %33, label %41

33:                                               ; preds = %27
  %34 = load i64, ptr %16, align 8, !tbaa !44
  %35 = load i32, ptr %17, align 4, !tbaa !34
  %36 = sext i32 %35 to i64
  %37 = getelementptr inbounds [127 x i64], ptr %18, i64 0, i64 %36
  store i64 %34, ptr %37, align 8, !tbaa !44
  br label %38

38:                                               ; preds = %33
  %39 = load i32, ptr %17, align 4, !tbaa !34
  %40 = add nsw i32 %39, 1
  store i32 %40, ptr %17, align 4, !tbaa !34
  br label %27, !llvm.loop !103

41:                                               ; preds = %27
  %42 = load ptr, ptr %6, align 8, !tbaa !13
  %43 = getelementptr inbounds nuw %struct.AVFormatContext, ptr %42, i32 0, i32 16
  %44 = load i32, ptr %43, align 8, !tbaa !83
  %45 = icmp ugt i32 %44, 0
  br i1 %45, label %46, label %72

46:                                               ; preds = %41
  %47 = load i64, ptr %16, align 8, !tbaa !44
  %48 = load ptr, ptr %6, align 8, !tbaa !13
  %49 = getelementptr inbounds nuw %struct.AVFormatContext, ptr %48, i32 0, i32 16
  %50 = load i32, ptr %49, align 8, !tbaa !83
  %51 = zext i32 %50 to i64
  %52 = add nsw i64 %47, %51
  %53 = sub nsw i64 %52, 1
  %54 = load ptr, ptr %10, align 8, !tbaa !100
  %55 = getelementptr inbounds nuw %struct.FFFormatContext, ptr %54, i32 0, i32 3
  %56 = load i64, ptr %55, align 8, !tbaa !84
  %57 = sub nsw i64 %53, %56
  %58 = load ptr, ptr %6, align 8, !tbaa !13
  %59 = getelementptr inbounds nuw %struct.AVFormatContext, ptr %58, i32 0, i32 16
  %60 = load i32, ptr %59, align 8, !tbaa !83
  %61 = zext i32 %60 to i64
  %62 = sdiv i64 %57, %61
  %63 = load ptr, ptr %6, align 8, !tbaa !13
  %64 = getelementptr inbounds nuw %struct.AVFormatContext, ptr %63, i32 0, i32 16
  %65 = load i32, ptr %64, align 8, !tbaa !83
  %66 = zext i32 %65 to i64
  %67 = mul nsw i64 %62, %66
  %68 = load ptr, ptr %10, align 8, !tbaa !100
  %69 = getelementptr inbounds nuw %struct.FFFormatContext, ptr %68, i32 0, i32 3
  %70 = load i64, ptr %69, align 8, !tbaa !84
  %71 = add nsw i64 %67, %70
  store i64 %71, ptr %16, align 8, !tbaa !44
  br label %72

72:                                               ; preds = %46, %41
  %73 = load i64, ptr %16, align 8, !tbaa !44
  %74 = load ptr, ptr %8, align 8, !tbaa !98
  store i64 %73, ptr %74, align 8, !tbaa !44
  %75 = load ptr, ptr %6, align 8, !tbaa !13
  %76 = getelementptr inbounds nuw %struct.AVFormatContext, ptr %75, i32 0, i32 4
  %77 = load ptr, ptr %76, align 8, !tbaa !32
  %78 = load i64, ptr %16, align 8, !tbaa !44
  %79 = call i64 @avio_seek(ptr noundef %77, i64 noundef %78, i32 noundef 0)
  %80 = icmp slt i64 %79, 0
  br i1 %80, label %81, label %82

81:                                               ; preds = %72
  store i64 -9223372036854775808, ptr %5, align 8
  store i32 1, ptr %19, align 4
  br label %163

82:                                               ; preds = %72
  %83 = load ptr, ptr %6, align 8, !tbaa !13
  call void @ff_read_frame_flush(ptr noundef %83)
  %84 = load ptr, ptr %6, align 8, !tbaa !13
  call void @asf_reset_header(ptr noundef %84)
  br label %85

85:                                               ; preds = %157, %82
  %86 = load ptr, ptr %6, align 8, !tbaa !13
  %87 = load ptr, ptr %13, align 8, !tbaa !57
  %88 = call i32 @av_read_frame(ptr noundef %86, ptr noundef %87)
  %89 = icmp slt i32 %88, 0
  br i1 %89, label %90, label %92

90:                                               ; preds = %85
  %91 = load ptr, ptr %6, align 8, !tbaa !13
  call void (ptr, i32, ptr, ...) @av_log(ptr noundef %91, i32 noundef 32, ptr noundef @.str.70)
  store i64 -9223372036854775808, ptr %5, align 8
  store i32 1, ptr %19, align 4
  br label %163

92:                                               ; preds = %85
  %93 = load ptr, ptr %13, align 8, !tbaa !57
  %94 = getelementptr inbounds nuw %struct.AVPacket, ptr %93, i32 0, i32 2
  %95 = load i64, ptr %94, align 8, !tbaa !104
  store i64 %95, ptr %15, align 8, !tbaa !44
  %96 = load ptr, ptr %13, align 8, !tbaa !57
  %97 = getelementptr inbounds nuw %struct.AVPacket, ptr %96, i32 0, i32 6
  %98 = load i32, ptr %97, align 8, !tbaa !105
  %99 = and i32 %98, 1
  %100 = icmp ne i32 %99, 0
  br i1 %100, label %101, label %157

101:                                              ; preds = %92
  %102 = load ptr, ptr %13, align 8, !tbaa !57
  %103 = getelementptr inbounds nuw %struct.AVPacket, ptr %102, i32 0, i32 5
  %104 = load i32, ptr %103, align 4, !tbaa !106
  store i32 %104, ptr %17, align 4, !tbaa !34
  %105 = load ptr, ptr %11, align 8, !tbaa !30
  %106 = getelementptr inbounds nuw %struct.ASFContext, ptr %105, i32 0, i32 2
  %107 = load ptr, ptr %6, align 8, !tbaa !13
  %108 = getelementptr inbounds nuw %struct.AVFormatContext, ptr %107, i32 0, i32 7
  %109 = load ptr, ptr %108, align 8, !tbaa !62
  %110 = load i32, ptr %17, align 4, !tbaa !34
  %111 = sext i32 %110 to i64
  %112 = getelementptr inbounds ptr, ptr %109, i64 %111
  %113 = load ptr, ptr %112, align 8, !tbaa !63
  %114 = getelementptr inbounds nuw %struct.AVStream, ptr %113, i32 0, i32 2
  %115 = load i32, ptr %114, align 4, !tbaa !107
  %116 = sext i32 %115 to i64
  %117 = getelementptr inbounds [128 x %struct.ASFStream], ptr %106, i64 0, i64 %116
  store ptr %117, ptr %14, align 8, !tbaa !108
  %118 = load ptr, ptr %14, align 8, !tbaa !108
  %119 = getelementptr inbounds nuw %struct.ASFStream, ptr %118, i32 0, i32 12
  %120 = load i64, ptr %119, align 8, !tbaa !109
  store i64 %120, ptr %16, align 8, !tbaa !44
  %121 = load ptr, ptr %6, align 8, !tbaa !13
  %122 = getelementptr inbounds nuw %struct.AVFormatContext, ptr %121, i32 0, i32 7
  %123 = load ptr, ptr %122, align 8, !tbaa !62
  %124 = load i32, ptr %17, align 4, !tbaa !34
  %125 = sext i32 %124 to i64
  %126 = getelementptr inbounds ptr, ptr %123, i64 %125
  %127 = load ptr, ptr %126, align 8, !tbaa !63
  %128 = load i64, ptr %16, align 8, !tbaa !44
  %129 = load i64, ptr %15, align 8, !tbaa !44
  %130 = load ptr, ptr %13, align 8, !tbaa !57
  %131 = getelementptr inbounds nuw %struct.AVPacket, ptr %130, i32 0, i32 4
  %132 = load i32, ptr %131, align 8, !tbaa !59
  %133 = load i64, ptr %16, align 8, !tbaa !44
  %134 = load i32, ptr %17, align 4, !tbaa !34
  %135 = sext i32 %134 to i64
  %136 = getelementptr inbounds [127 x i64], ptr %18, i64 0, i64 %135
  %137 = load i64, ptr %136, align 8, !tbaa !44
  %138 = sub nsw i64 %133, %137
  %139 = add nsw i64 %138, 1
  %140 = trunc i64 %139 to i32
  %141 = call i32 @av_add_index_entry(ptr noundef %127, i64 noundef %128, i64 noundef %129, i32 noundef %132, i32 noundef %140, i32 noundef 1)
  %142 = load ptr, ptr %14, align 8, !tbaa !108
  %143 = getelementptr inbounds nuw %struct.ASFStream, ptr %142, i32 0, i32 12
  %144 = load i64, ptr %143, align 8, !tbaa !109
  %145 = add nsw i64 %144, 1
  %146 = load i32, ptr %17, align 4, !tbaa !34
  %147 = sext i32 %146 to i64
  %148 = getelementptr inbounds [127 x i64], ptr %18, i64 0, i64 %147
  store i64 %145, ptr %148, align 8, !tbaa !44
  %149 = load ptr, ptr %13, align 8, !tbaa !57
  %150 = getelementptr inbounds nuw %struct.AVPacket, ptr %149, i32 0, i32 5
  %151 = load i32, ptr %150, align 4, !tbaa !106
  %152 = load i32, ptr %7, align 4, !tbaa !34
  %153 = icmp eq i32 %151, %152
  br i1 %153, label %154, label %156

154:                                              ; preds = %101
  %155 = load ptr, ptr %13, align 8, !tbaa !57
  call void @av_packet_unref(ptr noundef %155)
  br label %159

156:                                              ; preds = %101
  br label %157

157:                                              ; preds = %156, %92
  %158 = load ptr, ptr %13, align 8, !tbaa !57
  call void @av_packet_unref(ptr noundef %158)
  br label %85

159:                                              ; preds = %154
  %160 = load i64, ptr %16, align 8, !tbaa !44
  %161 = load ptr, ptr %8, align 8, !tbaa !98
  store i64 %160, ptr %161, align 8, !tbaa !44
  %162 = load i64, ptr %15, align 8, !tbaa !44
  store i64 %162, ptr %5, align 8
  store i32 1, ptr %19, align 4
  br label %163

163:                                              ; preds = %159, %90, %81
  call void @llvm.lifetime.end.p0(i64 1016, ptr %18) #11
  call void @llvm.lifetime.end.p0(i64 4, ptr %17) #11
  call void @llvm.lifetime.end.p0(i64 8, ptr %16) #11
  call void @llvm.lifetime.end.p0(i64 8, ptr %15) #11
  call void @llvm.lifetime.end.p0(i64 8, ptr %14) #11
  call void @llvm.lifetime.end.p0(i64 8, ptr %13) #11
  call void @llvm.lifetime.end.p0(i64 104, ptr %12) #11
  call void @llvm.lifetime.end.p0(i64 8, ptr %11) #11
  call void @llvm.lifetime.end.p0(i64 8, ptr %10) #11
  %164 = load i64, ptr %5, align 8
  ret i64 %164
}