; Function Attrs: nounwind uwtable
define internal noundef i64 @asf_read_pts(ptr noundef %0, i32 noundef %1, ptr noundef captures(none) %2, i64 %3) #1 {
  %5 = alloca %struct.AVPacket, align 8
  %6 = alloca [127 x i64], align 16
  %7 = getelementptr inbounds nuw i8, ptr %0, i64 24
  %8 = load ptr, ptr %7, align 8, !tbaa !11
  call void @llvm.lifetime.start.p0(i64 104, ptr nonnull %5) #14
  %9 = load i64, ptr %2, align 8, !tbaa !141
  call void @llvm.lifetime.start.p0(i64 1016, ptr nonnull %6) #14
  %10 = getelementptr inbounds nuw i8, ptr %0, i64 44
  %11 = load i32, ptr %10, align 4, !tbaa !52
  %.not55 = icmp eq i32 %11, 0
  br i1 %.not55, label %._crit_edge, label %.lr.ph.preheader

.lr.ph.preheader:                                 ; preds = %4
  %wide.trip.count = zext i32 %11 to i64
  br label %.lr.ph

.lr.ph:                                           ; preds = %.lr.ph.preheader, %.lr.ph
  %indvars.iv = phi i64 [ 0, %.lr.ph.preheader ], [ %indvars.iv.next, %.lr.ph ]
  %12 = getelementptr inbounds nuw [127 x i64], ptr %6, i64 0, i64 %indvars.iv
  store i64 %9, ptr %12, align 8, !tbaa !141
  %indvars.iv.next = add nuw nsw i64 %indvars.iv, 1
  %exitcond.not = icmp eq i64 %indvars.iv.next, %wide.trip.count
  br i1 %exitcond.not, label %._crit_edge, label %.lr.ph, !llvm.loop !174

._crit_edge:                                      ; preds = %.lr.ph, %4
  %13 = getelementptr inbounds nuw i8, ptr %0, i64 120
  %14 = load i32, ptr %13, align 8, !tbaa !51
  %.not = icmp eq i32 %14, 0
  br i1 %.not, label %25, label %15

15:                                               ; preds = %._crit_edge
  %16 = zext i32 %14 to i64
  %17 = add nsw i64 %9, %16
  %18 = getelementptr inbounds nuw i8, ptr %0, i64 496
  %19 = load i64, ptr %18, align 8, !tbaa !167
  %20 = xor i64 %19, -1
  %21 = add i64 %17, %20
  %.fr = freeze i64 %21
  %22 = srem i64 %.fr, %16
  %23 = sub i64 %19, %22
  %24 = add i64 %23, %.fr
  br label %25

25:                                               ; preds = %15, %._crit_edge
  %.047 = phi i64 [ %24, %15 ], [ %9, %._crit_edge ]
  store i64 %.047, ptr %2, align 8, !tbaa !141
  %26 = getelementptr inbounds nuw i8, ptr %0, i64 32
  %27 = load ptr, ptr %26, align 8, !tbaa !26
  %28 = tail call i64 @avio_seek(ptr noundef %27, i64 noundef %.047, i32 noundef 0) #14
  %29 = icmp slt i64 %28, 0
  br i1 %29, label %83, label %30

30:                                               ; preds = %25
  tail call void @ff_read_frame_flush(ptr noundef nonnull %0) #14
  %.val = load ptr, ptr %7, align 8, !tbaa !11
  %31 = getelementptr inbounds nuw i8, ptr %.val, i64 161544
  store i32 0, ptr %31, align 8, !tbaa !106
  %32 = getelementptr inbounds nuw i8, ptr %.val, i64 161656
  %33 = getelementptr inbounds nuw i8, ptr %.val, i64 161704
  store i64 0, ptr %33, align 8, !tbaa !125
  %34 = getelementptr inbounds nuw i8, ptr %.val, i64 161716
  store i32 0, ptr %34, align 4, !tbaa !133
  %35 = getelementptr inbounds nuw i8, ptr %.val, i64 161720
  store i32 0, ptr %35, align 8, !tbaa !129
  %36 = getelementptr inbounds nuw i8, ptr %.val, i64 161728
  store i64 0, ptr %36, align 8, !tbaa !115
  %37 = getelementptr inbounds nuw i8, ptr %.val, i64 520
  tail call void @llvm.memset.p0.i64(ptr noundef nonnull align 8 dereferenceable(44) %32, i8 0, i64 44, i1 false)
  br label %38

38:                                               ; preds = %38, %30
  %indvars.iv.i = phi i64 [ 0, %30 ], [ %indvars.iv.next.i, %38 ]
  %39 = getelementptr inbounds nuw [128 x %struct.ASFStream], ptr %37, i64 0, i64 %indvars.iv.i
  %40 = getelementptr inbounds nuw i8, ptr %39, i64 8
  tail call void @av_packet_unref(ptr noundef nonnull %40) #14
  %41 = getelementptr inbounds nuw i8, ptr %39, i64 116
  store i32 0, ptr %41, align 4, !tbaa !124
  %42 = getelementptr inbounds nuw i8, ptr %39, i64 112
  store i32 0, ptr %42, align 8, !tbaa !137
  %43 = getelementptr inbounds nuw i8, ptr %39, i64 4
  store i8 0, ptr %43, align 4, !tbaa !140
  %indvars.iv.next.i = add nuw nsw i64 %indvars.iv.i, 1
  %exitcond.not.i = icmp eq i64 %indvars.iv.next.i, 128
  br i1 %exitcond.not.i, label %asf_reset_header.exit, label %38, !llvm.loop !166

asf_reset_header.exit:                            ; preds = %38
  %44 = getelementptr inbounds nuw i8, ptr %.val, i64 161752
  store ptr null, ptr %44, align 8, !tbaa !136
  %45 = call i32 @av_read_frame(ptr noundef nonnull %0, ptr noundef nonnull %5) #14
  %46 = icmp slt i32 %45, 0
  br i1 %46, label %._crit_edge54, label %.lr.ph53

.lr.ph53:                                         ; preds = %asf_reset_header.exit
  %47 = getelementptr inbounds nuw i8, ptr %5, i64 16
  %48 = getelementptr inbounds nuw i8, ptr %5, i64 40
  %49 = getelementptr inbounds nuw i8, ptr %5, i64 36
  %50 = getelementptr inbounds nuw i8, ptr %0, i64 48
  %51 = getelementptr i8, ptr %8, i64 680
  %52 = getelementptr inbounds nuw i8, ptr %5, i64 32
  br label %53

._crit_edge54:                                    ; preds = %80, %asf_reset_header.exit
  call void (ptr, i32, ptr, ...) @av_log(ptr noundef nonnull %0, i32 noundef 32, ptr noundef nonnull @.str.70) #14
  br label %83

53:                                               ; preds = %.lr.ph53, %80
  %54 = load i32, ptr %48, align 8, !tbaa !175
  %55 = and i32 %54, 1
  %.not50 = icmp eq i32 %55, 0
  br i1 %.not50, label %80, label %56

56:                                               ; preds = %53
  %57 = load i64, ptr %47, align 8, !tbaa !176
  %58 = load i32, ptr %49, align 4, !tbaa !177
  %59 = load ptr, ptr %50, align 8, !tbaa !107
  %60 = sext i32 %58 to i64
  %61 = getelementptr inbounds ptr, ptr %59, i64 %60
  %62 = load ptr, ptr %61, align 8, !tbaa !108
  %63 = getelementptr inbounds nuw i8, ptr %62, i64 12
  %64 = load i32, ptr %63, align 4, !tbaa !60
  %65 = sext i32 %64 to i64
  %.idx = mul nsw i64 %65, 1240
  %66 = getelementptr i8, ptr %51, i64 %.idx
  %67 = load i64, ptr %66, align 8, !tbaa !143
  %68 = load i32, ptr %52, align 8, !tbaa !104
  %69 = getelementptr inbounds [127 x i64], ptr %6, i64 0, i64 %60
  %70 = load i64, ptr %69, align 8, !tbaa !141
  %71 = sub nsw i64 %67, %70
  %72 = trunc i64 %71 to i32
  %73 = add i32 %72, 1
  %74 = call i32 @av_add_index_entry(ptr noundef %62, i64 noundef %67, i64 noundef %57, i32 noundef %68, i32 noundef %73, i32 noundef 1) #14
  %75 = load i64, ptr %66, align 8, !tbaa !143
  %76 = add nsw i64 %75, 1
  store i64 %76, ptr %69, align 8, !tbaa !141
  %77 = load i32, ptr %49, align 4, !tbaa !177
  %78 = icmp eq i32 %77, %1
  br i1 %78, label %79, label %80

79:                                               ; preds = %56
  call void @av_packet_unref(ptr noundef nonnull %5) #14
  store i64 %67, ptr %2, align 8, !tbaa !141
  br label %83

80:                                               ; preds = %56, %53
  call void @av_packet_unref(ptr noundef nonnull %5) #14
  %81 = call i32 @av_read_frame(ptr noundef nonnull %0, ptr noundef nonnull %5) #14
  %82 = icmp slt i32 %81, 0
  br i1 %82, label %._crit_edge54, label %53

83:                                               ; preds = %25, %79, %._crit_edge54
  %.048 = phi i64 [ -9223372036854775808, %._crit_edge54 ], [ %57, %79 ], [ -9223372036854775808, %25 ]
  call void @llvm.lifetime.end.p0(i64 1016, ptr nonnull %6) #14
  call void @llvm.lifetime.end.p0(i64 104, ptr nonnull %5) #14
  ret i64 %.048
}